; Function Attrs: mustprogress nofree nounwind willreturn memory(write, argmem: readwrite) uwtable
define internal { double, double } @_ZL14merc_e_forward5PJ_LPP8PJconsts(double %0, double %1, ptr noundef readonly captures(none) %2) #4 {
  %4 = getelementptr inbounds nuw i8, ptr %2, i64 488
  %5 = load double, ptr %4, align 8, !tbaa !44
  %6 = fmul double %0, %5
  %7 = tail call double @sin(double noundef %1) #6, !tbaa !43
  %8 = tail call double @cos(double noundef %1) #6, !tbaa !43
  %9 = fdiv double %7, %8
  %10 = tail call double @asinh(double noundef %9) #6, !tbaa !43
  %11 = getelementptr inbounds nuw i8, ptr %2, i64 208
  %12 = load double, ptr %11, align 8, !tbaa !47
  %13 = fmul double %7, %12
  %14 = tail call double @atanh(double noundef %13) #6, !tbaa !43
  %15 = fneg double %12
  %16 = tail call double @llvm.fmuladd.f64(double %15, double %14, double %10)
  %17 = fmul double %5, %16
  %.fca.0.insert = insertvalue { double, double } poison, double %6, 0
  %.fca.1.insert = insertvalue { double, double } %.fca.0.insert, double %17, 1
  ret { double, double } %.fca.1.insert
}